target datalayout = "e-m:e-p270:32:32-p271:32:32-p272:64:64-i64:64-i128:128-f80:128-n8:16:32:64-S128"
target triple = "x86_64-unknown-linux-gnu"

%"class.llvh::raw_fd_ostream" = type { %"class.llvh::raw_pwrite_stream.base", i32, i8, i8, %"class.std::error_code", i64 }
%"class.llvh::raw_pwrite_stream.base" = type { %"class.llvh::raw_ostream.base" }
%"class.llvh::raw_ostream.base" = type <{ ptr, ptr, ptr, ptr, i32 }>
%"class.std::error_code" = type { i32, ptr }

; Function Attrs: mustprogress nounwind uwtable
define linkonce_odr hidden void @_ZN4llvh14raw_fd_ostream14error_detectedESt10error_code(ptr noundef nonnull align 8 dereferenceable(72) %this, i32 %EC.coerce0, ptr %EC.coerce1) #0 comdat align 2 {
entry:
  %EC = alloca %"class.std::error_code", align 8
  %this.addr = alloca ptr, align 8
  %0 = getelementptr inbounds { i32, ptr }, ptr %EC, i32 0, i32 0
  store i32 %EC.coerce0, ptr %0, align 8
  %1 = getelementptr inbounds { i32, ptr }, ptr %EC, i32 0, i32 1
  store ptr %EC.coerce1, ptr %1, align 8
  store ptr %this, ptr %this.addr, align 8
  %this1 = load ptr, ptr %this.addr, align 8
  %EC2 = getelementptr inbounds %"class.llvh::raw_fd_ostream", ptr %this1, i32 0, i32 4
  call void @llvm.memcpy.p0.p0.i64(ptr align 8 %EC2, ptr align 8 %EC, i64 16, i1 false)
  ret void
}

; Function Attrs: mustprogress nounwind uwtable
define linkonce_odr void @_ZNSt10error_codeC2EiRKNSt3_V214error_categoryE(ptr noundef nonnull align 8 dereferenceable(16) %this, i32 noundef %__v, ptr noundef nonnull align 8 dereferenceable(8) %__cat) unnamed_addr #0 comdat align 2 {
entry:
  %this.addr = alloca ptr, align 8
  %__v.addr = alloca i32, align 4
  %__cat.addr = alloca ptr, align 8
  store ptr %this, ptr %this.addr, align 8
  store i32 %__v, ptr %__v.addr, align 4
  store ptr %__cat, ptr %__cat.addr, align 8
  %this1 = load ptr, ptr %this.addr, align 8
  %_M_value = getelementptr inbounds %"class.std::error_code", ptr %this1, i32 0, i32 0
  %0 = load i32, ptr %__v.addr, align 4
  store i32 %0, ptr %_M_value, align 8
  %_M_cat = getelementptr inbounds %"class.std::error_code", ptr %this1, i32 0, i32 1
  %1 = load ptr, ptr %__cat.addr, align 8
  store ptr %1, ptr %_M_cat, align 8
  ret void
}

; Function Attrs: mustprogress nounwind uwtable
define linkonce_odr noundef nonnull align 8 dereferenceable(8) ptr @_ZSt3minImERKT_S2_S2_(ptr noundef nonnull align 8 dereferenceable(8) %__a, ptr noundef nonnull align 8 dereferenceable(8) %__b) #0 comdat {
entry:
  %retval = alloca ptr, align 8
  %__a.addr = alloca ptr, align 8
  %__b.addr = alloca ptr, align 8
  store ptr %__a, ptr %__a.addr, align 8
  store ptr %__b, ptr %__b.addr, align 8
  %0 = load ptr, ptr %__b.addr, align 8
  %1 = load i64, ptr %0, align 8
  %2 = load ptr, ptr %__a.addr, align 8
  %3 = load i64, ptr %2, align 8
  %cmp = icmp ult i64 %1, %3
  br i1 %cmp, label %if.then, label %if.end

if.then:                                          ; preds = %entry
  %4 = load ptr, ptr %__b.addr, align 8
  store ptr %4, ptr %retval, align 8
  br label %return

if.end:                                           ; preds = %entry
  %5 = load ptr, ptr %__a.addr, align 8
  store ptr %5, ptr %retval, align 8
  br label %return

return:                                           ; preds = %if.end, %if.then
  %6 = load ptr, ptr %retval, align 8
  ret ptr %6
}

; Function Attrs: mustprogress nounwind uwtable
define hidden void @_ZN4llvh14raw_fd_ostream10write_implEPKcm(ptr noundef nonnull align 8 dereferenceable(72) %this, ptr noundef %Ptr, i64 noundef %Size) unnamed_addr #0 align 2 {
entry:
  %this.addr = alloca ptr, align 8
  %Ptr.addr = alloca ptr, align 8
  %Size.addr = alloca i64, align 8
  %MaxWriteSize = alloca i64, align 8
  %ChunkSize = alloca i64, align 8
  %ret = alloca i64, align 8
  %agg.tmp = alloca %"class.std::error_code", align 8
  store ptr %this, ptr %this.addr, align 8
  store ptr %Ptr, ptr %Ptr.addr, align 8
  store i64 %Size, ptr %Size.addr, align 8
  %this1 = load ptr, ptr %this.addr, align 8
  %0 = load i64, ptr %Size.addr, align 8
  %pos = getelementptr inbounds %"class.llvh::raw_fd_ostream", ptr %this1, i32 0, i32 5
  %1 = load i64, ptr %pos, align 8
  %add = add i64 %1, %0
  store i64 %add, ptr %pos, align 8
  store i64 2147483647, ptr %MaxWriteSize, align 8
  store i64 1073741824, ptr %MaxWriteSize, align 8
  br label %do.body

do.body:                                          ; preds = %do.cond, %entry
  %call = call noundef nonnull align 8 dereferenceable(8) ptr @_ZSt3minImERKT_S2_S2_(ptr noundef nonnull align 8 dereferenceable(8) %Size.addr, ptr noundef nonnull align 8 dereferenceable(8) %MaxWriteSize)
  %2 = load i64, ptr %call, align 8
  store i64 %2, ptr %ChunkSize, align 8
  %FD = getelementptr inbounds %"class.llvh::raw_fd_ostream", ptr %this1, i32 0, i32 1
  %3 = load i32, ptr %FD, align 4
  %4 = load ptr, ptr %Ptr.addr, align 8
  %5 = load i64, ptr %ChunkSize, align 8
  %call2 = call i64 @write(i32 noundef %3, ptr noundef %4, i64 noundef %5)
  store i64 %call2, ptr %ret, align 8
  %6 = load i64, ptr %ret, align 8
  %cmp = icmp slt i64 %6, 0
  br i1 %cmp, label %if.then, label %if.end13

if.then:                                          ; preds = %do.body
  %call3 = call ptr @__errno_location() #16
  %7 = load i32, ptr %call3, align 4
  %cmp4 = icmp eq i32 %7, 4
  br i1 %cmp4, label %if.then10, label %lor.lhs.false

lor.lhs.false:                                    ; preds = %if.then
  %call5 = call ptr @__errno_location() #16
  %8 = load i32, ptr %call5, align 4
  %cmp6 = icmp eq i32 %8, 11
  br i1 %cmp6, label %if.then10, label %lor.lhs.false7

lor.lhs.false7:                                   ; preds = %lor.lhs.false
  %call8 = call ptr @__errno_location() #16
  %9 = load i32, ptr %call8, align 4
  %cmp9 = icmp eq i32 %9, 11
  br i1 %cmp9, label %if.then10, label %if.end

if.then10:                                        ; preds = %lor.lhs.false7, %lor.lhs.false, %if.then
  br label %do.cond

if.end:                                           ; preds = %lor.lhs.false7
  %call11 = call ptr @__errno_location() #16
  %10 = load i32, ptr %call11, align 4
  %call12 = call noundef nonnull align 8 dereferenceable(8) ptr @_ZNSt3_V216generic_categoryEv() #16
  call void @_ZNSt10error_codeC2EiRKNSt3_V214error_categoryE(ptr noundef nonnull align 8 dereferenceable(16) %agg.tmp, i32 noundef %10, ptr noundef nonnull align 8 dereferenceable(8) %call12) #9
  %11 = getelementptr inbounds { i32, ptr }, ptr %agg.tmp, i32 0, i32 0
  %12 = load i32, ptr %11, align 8
  %13 = getelementptr inbounds { i32, ptr }, ptr %agg.tmp, i32 0, i32 1
  %14 = load ptr, ptr %13, align 8
  call void @_ZN4llvh14raw_fd_ostream14error_detectedESt10error_code(ptr noundef nonnull align 8 dereferenceable(72) %this1, i32 %12, ptr %14)
  br label %do.end

if.end13:                                         ; preds = %do.body
  %15 = load i64, ptr %ret, align 8
  %16 = load ptr, ptr %Ptr.addr, align 8
  %add.ptr = getelementptr inbounds i8, ptr %16, i64 %15
  store ptr %add.ptr, ptr %Ptr.addr, align 8
  %17 = load i64, ptr %ret, align 8
  %18 = load i64, ptr %Size.addr, align 8
  %sub = sub i64 %18, %17
  store i64 %sub, ptr %Size.addr, align 8
  br label %do.cond

do.cond:                                          ; preds = %if.end13, %if.then10
  %19 = load i64, ptr %Size.addr, align 8
  %cmp14 = icmp ugt i64 %19, 0
  br i1 %cmp14, label %do.body, label %do.end, !llvm.loop !12

do.end:                                           ; preds = %do.cond, %if.end
  ret void
}