; Function Attrs: mustprogress nofree nounwind uwtable
define hidden void @_ZN4llvh14raw_fd_ostream10write_implEPKcm(ptr nocapture noundef nonnull align 8 dereferenceable(72) %this, ptr nocapture noundef readonly %Ptr, i64 noundef %Size) unnamed_addr #10 align 2 {
entry:
  %pos = getelementptr inbounds i8, ptr %this, i64 64
  %0 = load i64, ptr %pos, align 8
  %add = add i64 %0, %Size
  store i64 %add, ptr %pos, align 8
  %FD = getelementptr inbounds i8, ptr %this, i64 36
  br label %do.body

do.body:                                          ; preds = %do.cond, %entry
  %Size.addr.0 = phi i64 [ %Size, %entry ], [ %Size.addr.1, %do.cond ]
  %Ptr.addr.0 = phi ptr [ %Ptr, %entry ], [ %Ptr.addr.1, %do.cond ]
  %.sroa.speculated = tail call i64 @llvm.umin.i64(i64 %Size.addr.0, i64 1073741824)
  %1 = load i32, ptr %FD, align 4
  %call2 = tail call i64 @write(i32 noundef %1, ptr noundef %Ptr.addr.0, i64 noundef %.sroa.speculated) #26
  %cmp = icmp slt i64 %call2, 0
  br i1 %cmp, label %if.then, label %if.end13

if.then:                                          ; preds = %do.body
  %call3 = tail call ptr @__errno_location() #28
  %2 = load i32, ptr %call3, align 4
  switch i32 %2, label %if.end [
    i32 4, label %do.cond
    i32 11, label %do.cond
  ]

if.end:                                           ; preds = %if.then
  %call12 = tail call noundef nonnull align 8 dereferenceable(8) ptr @_ZNSt3_V216generic_categoryEv() #28
  %EC2.i = getelementptr inbounds i8, ptr %this, i64 48
  store i32 %2, ptr %EC2.i, align 8
  %EC.sroa.21.0.EC2.sroa_idx.i = getelementptr inbounds i8, ptr %this, i64 56
  store ptr %call12, ptr %EC.sroa.21.0.EC2.sroa_idx.i, align 8
  br label %do.end

if.end13:                                         ; preds = %do.body
  %add.ptr = getelementptr inbounds i8, ptr %Ptr.addr.0, i64 %call2
  %sub = sub i64 %Size.addr.0, %call2
  br label %do.cond

do.cond:                                          ; preds = %if.then, %if.then, %if.end13
  %Size.addr.1 = phi i64 [ %Size.addr.0, %if.then ], [ %Size.addr.0, %if.then ], [ %sub, %if.end13 ]
  %Ptr.addr.1 = phi ptr [ %Ptr.addr.0, %if.then ], [ %Ptr.addr.0, %if.then ], [ %add.ptr, %if.end13 ]
  %cmp14.not = icmp eq i64 %Size.addr.1, 0
  br i1 %cmp14.not, label %do.end, label %do.body, !llvm.loop !15

do.end:                                           ; preds = %do.cond, %if.end
  ret void
}